target datalayout = "e-m:e-p270:32:32-p271:32:32-p272:64:64-i64:64-i128:128-f80:128-n8:16:32:64-S128"
target triple = "x86_64-pc-linux-gnu"

@bio_stdout = internal global ptr null, align 8
@sn_server2 = internal global ptr null, align 8
@s_ctx2 = internal global ptr null, align 8
@.str.222 = private unnamed_addr constant [22 x i8] c"Servername 2 is NULL\0A\00", align 1
@.str.223 = private unnamed_addr constant [27 x i8] c"Switching server context.\0A\00", align 1

; Function Attrs: nounwind uwtable
define internal i32 @servername_cb(ptr noundef %0, ptr noundef %1, ptr noundef %2) #0 {
  %4 = alloca i32, align 4
  %5 = alloca ptr, align 8
  %6 = alloca ptr, align 8
  %7 = alloca ptr, align 8
  %8 = alloca ptr, align 8
  %9 = alloca i32, align 4
  store ptr %0, ptr %5, align 8, !tbaa !17
  store ptr %1, ptr %6, align 8, !tbaa !59
  store ptr %2, ptr %7, align 8, !tbaa !53
  call void @llvm.lifetime.start.p0(i64 8, ptr %8) #10
  %10 = load ptr, ptr %5, align 8, !tbaa !17
  %11 = call ptr @SSL_get_servername(ptr noundef %10, i32 noundef 0)
  store ptr %11, ptr %8, align 8, !tbaa !11
  %12 = load ptr, ptr @sn_server2, align 8, !tbaa !11
  %13 = icmp eq ptr %12, null
  br i1 %13, label %14, label %17

14:                                               ; preds = %3
  %15 = load ptr, ptr @bio_stdout, align 8, !tbaa !35
  %16 = call i32 (ptr, ptr, ...) @BIO_printf(ptr noundef %15, ptr noundef @.str.222)
  store i32 3, ptr %4, align 4
  store i32 1, ptr %9, align 4
  br label %39

17:                                               ; preds = %3
  %18 = load ptr, ptr %8, align 8, !tbaa !11
  %19 = icmp ne ptr %18, null
  br i1 %19, label %20, label %38

20:                                               ; preds = %17
  %21 = load ptr, ptr @s_ctx2, align 8, !tbaa !13
  %22 = icmp ne ptr %21, null
  br i1 %22, label %23, label %37

23:                                               ; preds = %20
  %24 = load ptr, ptr @sn_server2, align 8, !tbaa !11
  %25 = icmp ne ptr %24, null
  br i1 %25, label %26, label %37

26:                                               ; preds = %23
  %27 = load ptr, ptr %8, align 8, !tbaa !11
  %28 = load ptr, ptr @sn_server2, align 8, !tbaa !11
  %29 = call i32 @OPENSSL_strcasecmp(ptr noundef %27, ptr noundef %28)
  %30 = icmp ne i32 %29, 0
  br i1 %30, label %37, label %31

31:                                               ; preds = %26
  %32 = load ptr, ptr @bio_stdout, align 8, !tbaa !35
  %33 = call i32 (ptr, ptr, ...) @BIO_printf(ptr noundef %32, ptr noundef @.str.223)
  %34 = load ptr, ptr %5, align 8, !tbaa !17
  %35 = load ptr, ptr @s_ctx2, align 8, !tbaa !13
  %36 = call ptr @SSL_set_SSL_CTX(ptr noundef %34, ptr noundef %35)
  br label %37

37:                                               ; preds = %31, %26, %23, %20
  br label %38

38:                                               ; preds = %37, %17
  store i32 0, ptr %4, align 4
  store i32 1, ptr %9, align 4
  br label %39

39:                                               ; preds = %38, %14
  call void @llvm.lifetime.end.p0(i64 8, ptr %8) #10
  %40 = load i32, ptr %4, align 4
  ret i32 %40
}