; Function Attrs: nounwind uwtable
define internal range(i32 0, 4) i32 @servername_cb(ptr noundef %0, ptr readnone captures(none) %1, ptr readnone captures(none) %2) #7 {
  %4 = tail call ptr @SSL_get_servername(ptr noundef %0, i32 noundef 0) #23
  %5 = load ptr, ptr @sn_server2, align 8, !tbaa !21
  %6 = icmp eq ptr %5, null
  br i1 %6, label %7, label %10

7:                                                ; preds = %3
  %8 = load ptr, ptr @bio_stdout, align 8, !tbaa !19
  %9 = tail call i32 (ptr, ptr, ...) @BIO_printf(ptr noundef %8, ptr noundef nonnull @.str.222) #23
  br label %19

10:                                               ; preds = %3
  %.not = icmp eq ptr %4, null
  %11 = load ptr, ptr @s_ctx2, align 8
  %.not7 = icmp eq ptr %11, null
  %or.cond = select i1 %.not, i1 true, i1 %.not7
  br i1 %or.cond, label %19, label %12

12:                                               ; preds = %10
  %13 = tail call i32 @OPENSSL_strcasecmp(ptr noundef nonnull %4, ptr noundef nonnull %5) #23
  %.not8 = icmp eq i32 %13, 0
  br i1 %.not8, label %14, label %19

14:                                               ; preds = %12
  %15 = load ptr, ptr @bio_stdout, align 8, !tbaa !19
  %16 = tail call i32 (ptr, ptr, ...) @BIO_printf(ptr noundef %15, ptr noundef nonnull @.str.223) #23
  %17 = load ptr, ptr @s_ctx2, align 8, !tbaa !29
  %18 = tail call ptr @SSL_set_SSL_CTX(ptr noundef %0, ptr noundef %17) #23
  br label %19

19:                                               ; preds = %10, %14, %12, %7
  %.0 = phi i32 [ 3, %7 ], [ 0, %12 ], [ 0, %14 ], [ 0, %10 ]
  ret i32 %.0
}